target datalayout = "e-m:e-p270:32:32-p271:32:32-p272:64:64-i64:64-i128:128-f80:128-n8:16:32:64-S128"
target triple = "x86_64-pc-linux-gnu"

%class.fixed_bit_vector = type { [1 x i32] }
%class.fixed_bit_vector_manager = type <{ %class.small_object_allocator, i32, i32, i32, i32, %class.fixed_bit_vector, [4 x i8] }>
%class.small_object_allocator = type { [32 x ptr], [32 x ptr], i64 }

@.str = private unnamed_addr constant [17 x i8] c"fixed_bit_vector\00", align 1

; Function Attrs: mustprogress nounwind uwtable
define linkonce_odr hidden noundef i32 @_ZN24fixed_bit_vector_manager9num_wordsEj(i32 noundef %0) #6 comdat align 2 {
  %2 = alloca i32, align 4
  store i32 %0, ptr %2, align 4, !tbaa !8
  %3 = load i32, ptr %2, align 4, !tbaa !8
  %4 = add i32 %3, 31
  %5 = udiv i32 %4, 32
  ret i32 %5
}

; Function Attrs: mustprogress uwtable
define hidden void @_ZN24fixed_bit_vector_managerC2Ej(ptr noundef nonnull align 8 dereferenceable(540) %0, i32 noundef %1) unnamed_addr #4 align 2 personality ptr @__gxx_personality_v0 {
  %3 = alloca ptr, align 8
  %4 = alloca i32, align 4
  %5 = alloca ptr, align 8
  %6 = alloca i32, align 4
  %7 = alloca i32, align 4
  store ptr %0, ptr %3, align 8, !tbaa !18
  store i32 %1, ptr %4, align 4, !tbaa !8
  %8 = load ptr, ptr %3, align 8
  %9 = getelementptr inbounds nuw %class.fixed_bit_vector_manager, ptr %8, i32 0, i32 0
  call void @_ZN22small_object_allocatorC1EPKc(ptr noundef nonnull align 8 dereferenceable(520) %9, ptr noundef @.str)
  %10 = load i32, ptr %4, align 4, !tbaa !8
  %11 = getelementptr inbounds nuw %class.fixed_bit_vector_manager, ptr %8, i32 0, i32 1
  store i32 %10, ptr %11, align 8, !tbaa !20
  %12 = load i32, ptr %4, align 4, !tbaa !8
  %13 = invoke noundef i32 @_ZN24fixed_bit_vector_manager9num_wordsEj(i32 noundef %12)
          to label %14 unwind label %35

14:                                               ; preds = %2
  %15 = getelementptr inbounds nuw %class.fixed_bit_vector_manager, ptr %8, i32 0, i32 3
  store i32 %13, ptr %15, align 8, !tbaa !25
  %16 = getelementptr inbounds nuw %class.fixed_bit_vector_manager, ptr %8, i32 0, i32 3
  %17 = load i32, ptr %16, align 8, !tbaa !25
  %18 = zext i32 %17 to i64
  %19 = mul i64 %18, 4
  %20 = trunc i64 %19 to i32
  %21 = getelementptr inbounds nuw %class.fixed_bit_vector_manager, ptr %8, i32 0, i32 2
  store i32 %20, ptr %21, align 4, !tbaa !26
  call void @llvm.lifetime.start.p0(i64 4, ptr %7) #3
  %22 = getelementptr inbounds nuw %class.fixed_bit_vector_manager, ptr %8, i32 0, i32 1
  %23 = load i32, ptr %22, align 8, !tbaa !20
  %24 = urem i32 %23, 32
  store i32 %24, ptr %7, align 4, !tbaa !8
  %25 = load i32, ptr %7, align 4, !tbaa !8
  %26 = shl i32 1, %25
  %27 = sub i32 %26, 1
  %28 = getelementptr inbounds nuw %class.fixed_bit_vector_manager, ptr %8, i32 0, i32 4
  store i32 %27, ptr %28, align 4, !tbaa !27
  %29 = getelementptr inbounds nuw %class.fixed_bit_vector_manager, ptr %8, i32 0, i32 5
  call void @llvm.memset.p0.i64(ptr align 8 %29, i8 0, i64 4, i1 false)
  %30 = getelementptr inbounds nuw %class.fixed_bit_vector_manager, ptr %8, i32 0, i32 4
  %31 = load i32, ptr %30, align 4, !tbaa !27
  %32 = icmp eq i32 %31, 0
  br i1 %32, label %33, label %39

33:                                               ; preds = %14
  %34 = getelementptr inbounds nuw %class.fixed_bit_vector_manager, ptr %8, i32 0, i32 4
  store i32 -1, ptr %34, align 4, !tbaa !27
  br label %39

35:                                               ; preds = %2
  %36 = landingpad { ptr, i32 }
          cleanup
  %37 = extractvalue { ptr, i32 } %36, 0
  store ptr %37, ptr %5, align 8
  %38 = extractvalue { ptr, i32 } %36, 1
  store i32 %38, ptr %6, align 4
  call void @_ZN22small_object_allocatorD1Ev(ptr noundef nonnull align 8 dereferenceable(520) %9) #3
  br label %40

39:                                               ; preds = %33, %14
  call void @llvm.lifetime.end.p0(i64 4, ptr %7) #3
  ret void

40:                                               ; preds = %35
  %41 = load ptr, ptr %5, align 8
  %42 = load i32, ptr %6, align 4
  %43 = insertvalue { ptr, i32 } poison, ptr %41, 0
  %44 = insertvalue { ptr, i32 } %43, i32 %42, 1
  resume { ptr, i32 } %44
}