; Function Attrs: mustprogress uwtable
define hidden void @_ZN24fixed_bit_vector_managerC2Ej(ptr noundef nonnull align 8 dereferenceable(540) %0, i32 noundef %1) unnamed_addr #4 align 2 personality ptr @__gxx_personality_v0 {
  tail call void @_ZN22small_object_allocatorC1EPKc(ptr noundef nonnull align 8 dereferenceable(520) %0, ptr noundef nonnull @.str)
  %3 = getelementptr inbounds nuw i8, ptr %0, i64 520
  store i32 %1, ptr %3, align 8, !tbaa !11
  %4 = add i32 %1, 31
  %5 = lshr i32 %4, 5
  %6 = getelementptr inbounds nuw i8, ptr %0, i64 528
  store i32 %5, ptr %6, align 8, !tbaa !16
  %7 = shl nuw nsw i32 %5, 2
  %8 = getelementptr inbounds nuw i8, ptr %0, i64 524
  store i32 %7, ptr %8, align 4, !tbaa !17
  %9 = and i32 %1, 31
  %notmask = shl nsw i32 -1, %9
  %10 = xor i32 %notmask, -1
  %11 = getelementptr inbounds nuw i8, ptr %0, i64 532
  store i32 %10, ptr %11, align 4, !tbaa !18
  %12 = getelementptr inbounds nuw i8, ptr %0, i64 536
  store i32 0, ptr %12, align 8
  %13 = icmp eq i32 %9, 0
  br i1 %13, label %14, label %15

14:                                               ; preds = %2
  store i32 -1, ptr %11, align 4, !tbaa !18
  br label %15

15:                                               ; preds = %14, %2
  ret void
}